target datalayout = "e-m:e-p270:32:32-p271:32:32-p272:64:64-i64:64-i128:128-f80:128-n8:16:32:64-S128"
target triple = "x86_64-pc-linux-gnu"

%struct.mi_heap_s = type { ptr, [129 x ptr], [75 x %struct.mi_page_queue_s], ptr, i64, i64, [2 x i64], %struct.mi_random_cxt_s, i64, i64, i64, ptr, i8 }
%struct.mi_page_queue_s = type { ptr, ptr, i64 }
%struct.mi_random_cxt_s = type { [16 x i32], [16 x i32], i32 }
%struct.mi_tld_s = type { i64, i8, ptr, ptr, %struct.mi_segments_tld_s, %struct.mi_os_tld_s, %struct.mi_stats_s }
%struct.mi_segments_tld_s = type { [36 x %struct.mi_span_queue_s], i64, i64, i64, i64, ptr, ptr }
%struct.mi_span_queue_s = type { ptr, ptr, i64 }
%struct.mi_os_tld_s = type { i64, ptr }
%struct.mi_stats_s = type { %struct.mi_stat_count_s, %struct.mi_stat_count_s, %struct.mi_stat_count_s, %struct.mi_stat_count_s, %struct.mi_stat_count_s, %struct.mi_stat_count_s, %struct.mi_stat_count_s, %struct.mi_stat_count_s, %struct.mi_stat_count_s, %struct.mi_stat_count_s, %struct.mi_stat_count_s, %struct.mi_stat_count_s, %struct.mi_stat_count_s, %struct.mi_stat_count_s, %struct.mi_stat_counter_s, %struct.mi_stat_counter_s, %struct.mi_stat_counter_s, %struct.mi_stat_counter_s, %struct.mi_stat_counter_s, %struct.mi_stat_counter_s, %struct.mi_stat_counter_s, %struct.mi_stat_counter_s }
%struct.mi_stat_count_s = type { i64, i64, i64, i64 }
%struct.mi_stat_counter_s = type { i64, i64 }

@_mi_heap_empty = external constant %struct.mi_heap_s, align 8
@_mi_heap_default = external thread_local(localdynamic) global ptr, align 8

; Function Attrs: inlinehint nounwind uwtable
define internal void @_mi_memcpy(ptr noundef %0, ptr noundef %1, i64 noundef %2) #1 {
  %4 = alloca ptr, align 8
  %5 = alloca ptr, align 8
  %6 = alloca i64, align 8
  store ptr %0, ptr %4, align 8, !tbaa !35
  store ptr %1, ptr %5, align 8, !tbaa !35
  store i64 %2, ptr %6, align 8, !tbaa !32
  %7 = load ptr, ptr %4, align 8, !tbaa !35
  %8 = load ptr, ptr %5, align 8, !tbaa !35
  %9 = load i64, ptr %6, align 8, !tbaa !32
  call void @llvm.memcpy.p0.p0.i64(ptr align 1 %7, ptr align 1 %8, i64 %9, i1 false)
  ret void
}

; Function Attrs: inlinehint nounwind uwtable
define internal ptr @mi_get_default_heap() #1 {
  %1 = call align 8 ptr @llvm.threadlocal.address.p0(ptr align 8 @_mi_heap_default)
  %2 = load ptr, ptr %1, align 8, !tbaa !3
  ret ptr %2
}

; Function Attrs: inlinehint nounwind uwtable
define internal void @_mi_memcpy_aligned(ptr noundef %0, ptr noundef %1, i64 noundef %2) #1 {
  %4 = alloca ptr, align 8
  %5 = alloca ptr, align 8
  %6 = alloca i64, align 8
  %7 = alloca ptr, align 8
  %8 = alloca ptr, align 8
  store ptr %0, ptr %4, align 8, !tbaa !35
  store ptr %1, ptr %5, align 8, !tbaa !35
  store i64 %2, ptr %6, align 8, !tbaa !32
  call void @llvm.lifetime.start.p0(i64 8, ptr %7) #9
  %9 = load ptr, ptr %4, align 8, !tbaa !35
  call void @llvm.assume(i1 true) [ "align"(ptr %9, i64 8) ]
  store ptr %9, ptr %7, align 8, !tbaa !35
  call void @llvm.lifetime.start.p0(i64 8, ptr %8) #9
  %10 = load ptr, ptr %5, align 8, !tbaa !35
  call void @llvm.assume(i1 true) [ "align"(ptr %10, i64 8) ]
  store ptr %10, ptr %8, align 8, !tbaa !35
  %11 = load ptr, ptr %7, align 8, !tbaa !35
  %12 = load ptr, ptr %8, align 8, !tbaa !35
  %13 = load i64, ptr %6, align 8, !tbaa !32
  call void @_mi_memcpy(ptr noundef %11, ptr noundef %12, i64 noundef %13)
  call void @llvm.lifetime.end.p0(i64 8, ptr %8) #9
  call void @llvm.lifetime.end.p0(i64 8, ptr %7) #9
  ret void
}

; Function Attrs: inlinehint nounwind uwtable
define internal zeroext i1 @mi_heap_is_default(ptr noundef %0) #1 {
  %2 = alloca ptr, align 8
  store ptr %0, ptr %2, align 8, !tbaa !3
  %3 = load ptr, ptr %2, align 8, !tbaa !3
  %4 = call ptr @mi_get_default_heap()
  %5 = icmp eq ptr %3, %4
  ret i1 %5
}

; Function Attrs: nounwind uwtable
define internal void @mi_heap_reset_pages(ptr noundef %0) #0 {
  %2 = alloca ptr, align 8
  store ptr %0, ptr %2, align 8, !tbaa !3
  %3 = load ptr, ptr %2, align 8, !tbaa !3
  %4 = getelementptr inbounds nuw %struct.mi_heap_s, ptr %3, i32 0, i32 1
  call void @llvm.memset.p0.i64(ptr align 8 %4, i8 0, i64 1032, i1 false)
  %5 = load ptr, ptr %2, align 8, !tbaa !3
  %6 = getelementptr inbounds nuw %struct.mi_heap_s, ptr %5, i32 0, i32 2
  call void @_mi_memcpy_aligned(ptr noundef %6, ptr noundef getelementptr inbounds nuw (%struct.mi_heap_s, ptr @_mi_heap_empty, i32 0, i32 2), i64 noundef 1800)
  %7 = load ptr, ptr %2, align 8, !tbaa !3
  %8 = getelementptr inbounds nuw %struct.mi_heap_s, ptr %7, i32 0, i32 3
  store atomic ptr null, ptr %8 seq_cst, align 8, !tbaa !52
  %9 = load ptr, ptr %2, align 8, !tbaa !3
  %10 = getelementptr inbounds nuw %struct.mi_heap_s, ptr %9, i32 0, i32 8
  store i64 0, ptr %10, align 8, !tbaa !36
  ret void
}

; Function Attrs: nounwind uwtable
define internal void @mi_heap_free(ptr noundef %0) #0 {
  %2 = alloca ptr, align 8
  %3 = alloca ptr, align 8
  %4 = alloca ptr, align 8
  store ptr %0, ptr %2, align 8, !tbaa !3
  %5 = load ptr, ptr %2, align 8, !tbaa !3
  %6 = icmp eq ptr %5, null
  br i1 %6, label %10, label %7

7:                                                ; preds = %1
  %8 = load ptr, ptr %2, align 8, !tbaa !3
  %9 = call zeroext i1 @mi_heap_is_initialized(ptr noundef %8)
  br i1 %9, label %11, label %10

10:                                               ; preds = %7, %1
  br label %68

11:                                               ; preds = %7
  %12 = load ptr, ptr %2, align 8, !tbaa !3
  %13 = call zeroext i1 @mi_heap_is_backing(ptr noundef %12)
  br i1 %13, label %14, label %15

14:                                               ; preds = %11
  br label %68

15:                                               ; preds = %11
  %16 = load ptr, ptr %2, align 8, !tbaa !3
  %17 = call zeroext i1 @mi_heap_is_default(ptr noundef %16)
  br i1 %17, label %18, label %24

18:                                               ; preds = %15
  %19 = load ptr, ptr %2, align 8, !tbaa !3
  %20 = getelementptr inbounds nuw %struct.mi_heap_s, ptr %19, i32 0, i32 0
  %21 = load ptr, ptr %20, align 8, !tbaa !19
  %22 = getelementptr inbounds nuw %struct.mi_tld_s, ptr %21, i32 0, i32 2
  %23 = load ptr, ptr %22, align 8, !tbaa !20
  call void @_mi_heap_set_default_direct(ptr noundef %23)
  br label %24

24:                                               ; preds = %18, %15
  call void @llvm.lifetime.start.p0(i64 8, ptr %3) #9
  store ptr null, ptr %3, align 8, !tbaa !3
  call void @llvm.lifetime.start.p0(i64 8, ptr %4) #9
  %25 = load ptr, ptr %2, align 8, !tbaa !3
  %26 = getelementptr inbounds nuw %struct.mi_heap_s, ptr %25, i32 0, i32 0
  %27 = load ptr, ptr %26, align 8, !tbaa !19
  %28 = getelementptr inbounds nuw %struct.mi_tld_s, ptr %27, i32 0, i32 3
  %29 = load ptr, ptr %28, align 8, !tbaa !33
  store ptr %29, ptr %4, align 8, !tbaa !3
  br label %30

30:                                               ; preds = %39, %24
  %31 = load ptr, ptr %4, align 8, !tbaa !3
  %32 = load ptr, ptr %2, align 8, !tbaa !3
  %33 = icmp ne ptr %31, %32
  br i1 %33, label %34, label %37

34:                                               ; preds = %30
  %35 = load ptr, ptr %4, align 8, !tbaa !3
  %36 = icmp ne ptr %35, null
  br label %37

37:                                               ; preds = %34, %30
  %38 = phi i1 [ false, %30 ], [ %36, %34 ]
  br i1 %38, label %39, label %44

39:                                               ; preds = %37
  %40 = load ptr, ptr %4, align 8, !tbaa !3
  store ptr %40, ptr %3, align 8, !tbaa !3
  %41 = load ptr, ptr %4, align 8, !tbaa !3
  %42 = getelementptr inbounds nuw %struct.mi_heap_s, ptr %41, i32 0, i32 11
  %43 = load ptr, ptr %42, align 8, !tbaa !34
  store ptr %43, ptr %4, align 8, !tbaa !3
  br label %30, !llvm.loop !53

44:                                               ; preds = %37
  %45 = load ptr, ptr %4, align 8, !tbaa !3
  %46 = load ptr, ptr %2, align 8, !tbaa !3
  %47 = icmp eq ptr %45, %46
  br i1 %47, label %48, label %66

48:                                               ; preds = %44
  %49 = load ptr, ptr %3, align 8, !tbaa !3
  %50 = icmp ne ptr %49, null
  br i1 %50, label %51, label %57

51:                                               ; preds = %48
  %52 = load ptr, ptr %2, align 8, !tbaa !3
  %53 = getelementptr inbounds nuw %struct.mi_heap_s, ptr %52, i32 0, i32 11
  %54 = load ptr, ptr %53, align 8, !tbaa !34
  %55 = load ptr, ptr %3, align 8, !tbaa !3
  %56 = getelementptr inbounds nuw %struct.mi_heap_s, ptr %55, i32 0, i32 11
  store ptr %54, ptr %56, align 8, !tbaa !34
  br label %65

57:                                               ; preds = %48
  %58 = load ptr, ptr %2, align 8, !tbaa !3
  %59 = getelementptr inbounds nuw %struct.mi_heap_s, ptr %58, i32 0, i32 11
  %60 = load ptr, ptr %59, align 8, !tbaa !34
  %61 = load ptr, ptr %2, align 8, !tbaa !3
  %62 = getelementptr inbounds nuw %struct.mi_heap_s, ptr %61, i32 0, i32 0
  %63 = load ptr, ptr %62, align 8, !tbaa !19
  %64 = getelementptr inbounds nuw %struct.mi_tld_s, ptr %63, i32 0, i32 3
  store ptr %60, ptr %64, align 8, !tbaa !33
  br label %65

65:                                               ; preds = %57, %51
  br label %66

66:                                               ; preds = %65, %44
  %67 = load ptr, ptr %2, align 8, !tbaa !3
  call void @mi_free(ptr noundef %67)
  call void @llvm.lifetime.end.p0(i64 8, ptr %4) #9
  call void @llvm.lifetime.end.p0(i64 8, ptr %3) #9
  br label %68

68:                                               ; preds = %66, %14, %10
  ret void
}

; Function Attrs: nounwind uwtable
define hidden void @_mi_heap_collect_abandon(ptr noundef %0) #0 {
  %2 = alloca ptr, align 8
  store ptr %0, ptr %2, align 8, !tbaa !3
  %3 = load ptr, ptr %2, align 8, !tbaa !3
  call void @mi_heap_collect_ex(ptr noundef %3, i32 noundef 2)
  ret void
}

; Function Attrs: nounwind uwtable
define internal void @mi_heap_absorb(ptr noundef %0, ptr noundef %1) #0 {
  %3 = alloca ptr, align 8
  %4 = alloca ptr, align 8
  %5 = alloca i64, align 8
  %6 = alloca ptr, align 8
  %7 = alloca ptr, align 8
  %8 = alloca i64, align 8
  store ptr %0, ptr %3, align 8, !tbaa !3
  store ptr %1, ptr %4, align 8, !tbaa !3
  %9 = load ptr, ptr %4, align 8, !tbaa !3
  %10 = icmp eq ptr %9, null
  br i1 %10, label %16, label %11

11:                                               ; preds = %2
  %12 = load ptr, ptr %4, align 8, !tbaa !3
  %13 = getelementptr inbounds nuw %struct.mi_heap_s, ptr %12, i32 0, i32 8
  %14 = load i64, ptr %13, align 8, !tbaa !36
  %15 = icmp eq i64 %14, 0
  br i1 %15, label %16, label %17

16:                                               ; preds = %11, %2
  br label %52

17:                                               ; preds = %11
  %18 = load ptr, ptr %4, align 8, !tbaa !3
  call void @_mi_heap_delayed_free(ptr noundef %18)
  call void @llvm.lifetime.start.p0(i64 8, ptr %5) #9
  store i64 0, ptr %5, align 8, !tbaa !32
  br label %19

19:                                               ; preds = %46, %17
  %20 = load i64, ptr %5, align 8, !tbaa !32
  %21 = icmp ule i64 %20, 74
  br i1 %21, label %23, label %22

22:                                               ; preds = %19
  call void @llvm.lifetime.end.p0(i64 8, ptr %5) #9
  br label %49

23:                                               ; preds = %19
  call void @llvm.lifetime.start.p0(i64 8, ptr %6) #9
  %24 = load ptr, ptr %3, align 8, !tbaa !3
  %25 = getelementptr inbounds nuw %struct.mi_heap_s, ptr %24, i32 0, i32 2
  %26 = load i64, ptr %5, align 8, !tbaa !32
  %27 = getelementptr inbounds nuw [75 x %struct.mi_page_queue_s], ptr %25, i64 0, i64 %26
  store ptr %27, ptr %6, align 8, !tbaa !37
  call void @llvm.lifetime.start.p0(i64 8, ptr %7) #9
  %28 = load ptr, ptr %4, align 8, !tbaa !3
  %29 = getelementptr inbounds nuw %struct.mi_heap_s, ptr %28, i32 0, i32 2
  %30 = load i64, ptr %5, align 8, !tbaa !32
  %31 = getelementptr inbounds nuw [75 x %struct.mi_page_queue_s], ptr %29, i64 0, i64 %30
  store ptr %31, ptr %7, align 8, !tbaa !37
  call void @llvm.lifetime.start.p0(i64 8, ptr %8) #9
  %32 = load ptr, ptr %3, align 8, !tbaa !3
  %33 = load ptr, ptr %6, align 8, !tbaa !37
  %34 = load ptr, ptr %7, align 8, !tbaa !37
  %35 = call i64 @_mi_page_queue_append(ptr noundef %32, ptr noundef %33, ptr noundef %34)
  store i64 %35, ptr %8, align 8, !tbaa !32
  %36 = load i64, ptr %8, align 8, !tbaa !32
  %37 = load ptr, ptr %3, align 8, !tbaa !3
  %38 = getelementptr inbounds nuw %struct.mi_heap_s, ptr %37, i32 0, i32 8
  %39 = load i64, ptr %38, align 8, !tbaa !36
  %40 = add i64 %39, %36
  store i64 %40, ptr %38, align 8, !tbaa !36
  %41 = load i64, ptr %8, align 8, !tbaa !32
  %42 = load ptr, ptr %4, align 8, !tbaa !3
  %43 = getelementptr inbounds nuw %struct.mi_heap_s, ptr %42, i32 0, i32 8
  %44 = load i64, ptr %43, align 8, !tbaa !36
  %45 = sub i64 %44, %41
  store i64 %45, ptr %43, align 8, !tbaa !36
  call void @llvm.lifetime.end.p0(i64 8, ptr %8) #9
  call void @llvm.lifetime.end.p0(i64 8, ptr %7) #9
  call void @llvm.lifetime.end.p0(i64 8, ptr %6) #9
  br label %46

46:                                               ; preds = %23
  %47 = load i64, ptr %5, align 8, !tbaa !32
  %48 = add i64 %47, 1
  store i64 %48, ptr %5, align 8, !tbaa !32
  br label %19, !llvm.loop !54

49:                                               ; preds = %22
  %50 = load ptr, ptr %4, align 8, !tbaa !3
  call void @_mi_heap_delayed_free(ptr noundef %50)
  %51 = load ptr, ptr %4, align 8, !tbaa !3
  call void @mi_heap_reset_pages(ptr noundef %51)
  br label %52

52:                                               ; preds = %49, %16
  ret void
}

; Function Attrs: inlinehint nounwind uwtable
define internal zeroext i1 @mi_heap_is_backing(ptr noundef %0) #1 {
  %2 = alloca ptr, align 8
  store ptr %0, ptr %2, align 8, !tbaa !3
  %3 = load ptr, ptr %2, align 8, !tbaa !3
  %4 = getelementptr inbounds nuw %struct.mi_heap_s, ptr %3, i32 0, i32 0
  %5 = load ptr, ptr %4, align 8, !tbaa !19
  %6 = getelementptr inbounds nuw %struct.mi_tld_s, ptr %5, i32 0, i32 2
  %7 = load ptr, ptr %6, align 8, !tbaa !20
  %8 = load ptr, ptr %2, align 8, !tbaa !3
  %9 = icmp eq ptr %7, %8
  ret i1 %9
}

; Function Attrs: inlinehint nounwind uwtable
define internal zeroext i1 @mi_heap_is_initialized(ptr noundef %0) #1 {
  %2 = alloca ptr, align 8
  store ptr %0, ptr %2, align 8, !tbaa !3
  %3 = load ptr, ptr %2, align 8, !tbaa !3
  %4 = icmp ne ptr %3, @_mi_heap_empty
  ret i1 %4
}

; Function Attrs: nounwind uwtable
define hidden void @mi_heap_delete(ptr noundef %0) #0 {
  %2 = alloca ptr, align 8
  store ptr %0, ptr %2, align 8, !tbaa !3
  %3 = load ptr, ptr %2, align 8, !tbaa !3
  %4 = icmp eq ptr %3, null
  br i1 %4, label %8, label %5

5:                                                ; preds = %1
  %6 = load ptr, ptr %2, align 8, !tbaa !3
  %7 = call zeroext i1 @mi_heap_is_initialized(ptr noundef %6)
  br i1 %7, label %9, label %8

8:                                                ; preds = %5, %1
  br label %23

9:                                                ; preds = %5
  %10 = load ptr, ptr %2, align 8, !tbaa !3
  %11 = call zeroext i1 @mi_heap_is_backing(ptr noundef %10)
  br i1 %11, label %19, label %12

12:                                               ; preds = %9
  %13 = load ptr, ptr %2, align 8, !tbaa !3
  %14 = getelementptr inbounds nuw %struct.mi_heap_s, ptr %13, i32 0, i32 0
  %15 = load ptr, ptr %14, align 8, !tbaa !19
  %16 = getelementptr inbounds nuw %struct.mi_tld_s, ptr %15, i32 0, i32 2
  %17 = load ptr, ptr %16, align 8, !tbaa !20
  %18 = load ptr, ptr %2, align 8, !tbaa !3
  call void @mi_heap_absorb(ptr noundef %17, ptr noundef %18)
  br label %21

19:                                               ; preds = %9
  %20 = load ptr, ptr %2, align 8, !tbaa !3
  call void @_mi_heap_collect_abandon(ptr noundef %20)
  br label %21

21:                                               ; preds = %19, %12
  %22 = load ptr, ptr %2, align 8, !tbaa !3
  call void @mi_heap_free(ptr noundef %22)
  br label %23

23:                                               ; preds = %21, %8
  ret void
}